; Function Attrs: nounwind uwtable
define internal ptr @wrapper_repr(ptr noundef readonly captures(none) %0) #0 {
  %2 = getelementptr inbounds nuw i8, ptr %0, i64 16
  %3 = load ptr, ptr %2, align 8, !tbaa !60
  %4 = getelementptr inbounds nuw i8, ptr %3, i64 40
  %5 = load ptr, ptr %4, align 8, !tbaa !48
  %6 = load ptr, ptr %5, align 8, !tbaa !59
  %7 = getelementptr inbounds nuw i8, ptr %0, i64 24
  %8 = load ptr, ptr %7, align 8, !tbaa !62
  %9 = getelementptr i8, ptr %8, i64 8
  %.val = load ptr, ptr %9, align 8, !tbaa !19
  %10 = getelementptr inbounds nuw i8, ptr %.val, i64 24
  %11 = load ptr, ptr %10, align 8, !tbaa !29
  %12 = tail call ptr (ptr, ...) @PyUnicode_FromFormat(ptr noundef nonnull @.str.46, ptr noundef %6, ptr noundef %11, ptr noundef %8) #9
  ret ptr %12
}